; ModuleID = '52/3221.c'
source_filename = "52/3221.c"
target datalayout = "e-m:e-p270:32:32-p271:32:32-p272:64:64-i64:64-f80:128-n8:16:32:64-S128"
target triple = "x86_64-pc-linux-gnu"

@.str = private unnamed_addr constant [5 x i8] c"%d%d\00", align 1
@.str.1 = private unnamed_addr constant [3 x i8] c"%d\00", align 1
@.str.2 = private unnamed_addr constant [4 x i8] c"%d \00", align 1

; Function Attrs: noinline nounwind uwtable
define dso_local i32 @main() #0 {
  %1 = alloca i32, align 4
  %2 = alloca [100 x i32], align 16
  %3 = alloca i32, align 4
  %4 = alloca i32, align 4
  %5 = alloca i32, align 4
  %6 = alloca i32, align 4
  %7 = alloca i32, align 4
  %8 = alloca i32, align 4
  store i32 0, i32* %1, align 4
  %9 = call i32 (i8*, ...) @__isoc99_scanf(i8* getelementptr inbounds ([5 x i8], [5 x i8]* @.str, i64 0, i64 0), i32* %3, i32* %4)
  store i32 0, i32* %5, align 4
  br label %10

10:                                               ; preds = %19, %0
  %11 = load i32, i32* %5, align 4
  %12 = load i32, i32* %3, align 4
  %13 = icmp slt i32 %11, %12
  br i1 %13, label %14, label %22

14:                                               ; preds = %10
  %15 = load i32, i32* %5, align 4
  %16 = sext i32 %15 to i64
  %17 = getelementptr inbounds [100 x i32], [100 x i32]* %2, i64 0, i64 %16
  %18 = call i32 (i8*, ...) @__isoc99_scanf(i8* getelementptr inbounds ([3 x i8], [3 x i8]* @.str.1, i64 0, i64 0), i32* %17)
  br label %19

19:                                               ; preds = %14
  %20 = load i32, i32* %5, align 4
  %21 = add nsw i32 %20, 1
  store i32 %21, i32* %5, align 4
  br label %10

22:                                               ; preds = %10
  %23 = load i32, i32* %3, align 4
  %24 = sub nsw i32 %23, 1
  %25 = sext i32 %24 to i64
  %26 = getelementptr inbounds [100 x i32], [100 x i32]* %2, i64 0, i64 %25
  %27 = load i32, i32* %26, align 4
  store i32 %27, i32* %6, align 4
  store i32 0, i32* %8, align 4
  store i32 0, i32* %5, align 4
  br label %28

28:                                               ; preds = %60, %22
  %29 = load i32, i32* %5, align 4
  %30 = load i32, i32* %3, align 4
  %31 = sub nsw i32 %30, 1
  %32 = icmp sgt i32 %29, %31
  br i1 %32, label %33, label %39

33:                                               ; preds = %28
  store i32 0, i32* %5, align 4
  %34 = load i32, i32* %3, align 4
  %35 = sub nsw i32 %34, 1
  %36 = sext i32 %35 to i64
  %37 = getelementptr inbounds [100 x i32], [100 x i32]* %2, i64 0, i64 %36
  %38 = load i32, i32* %37, align 4
  store i32 %38, i32* %6, align 4
  br label %41

39:                                               ; preds = %28
  %40 = load i32, i32* %5, align 4
  store i32 %40, i32* %5, align 4
  br label %41

41:                                               ; preds = %39, %33
  %42 = load i32, i32* %5, align 4
  %43 = sext i32 %42 to i64
  %44 = getelementptr inbounds [100 x i32], [100 x i32]* %2, i64 0, i64 %43
  %45 = load i32, i32* %44, align 4
  store i32 %45, i32* %7, align 4
  %46 = load i32, i32* %6, align 4
  %47 = load i32, i32* %5, align 4
  %48 = sext i32 %47 to i64
  %49 = getelementptr inbounds [100 x i32], [100 x i32]* %2, i64 0, i64 %48
  store i32 %46, i32* %49, align 4
  %50 = load i32, i32* %7, align 4
  store i32 %50, i32* %6, align 4
  %51 = load i32, i32* %8, align 4
  %52 = add nsw i32 %51, 1
  store i32 %52, i32* %8, align 4
  %53 = load i32, i32* %8, align 4
  %54 = load i32, i32* %4, align 4
  %55 = load i32, i32* %3, align 4
  %56 = mul nsw i32 %54, %55
  %57 = icmp eq i32 %53, %56
  br i1 %57, label %58, label %59

58:                                               ; preds = %41
  br label %63

59:                                               ; preds = %41
  br label %60

60:                                               ; preds = %59
  %61 = load i32, i32* %5, align 4
  %62 = add nsw i32 %61, 1
  store i32 %62, i32* %5, align 4
  br label %28

63:                                               ; preds = %58
  store i32 0, i32* %5, align 4
  br label %64

64:                                               ; preds = %75, %63
  %65 = load i32, i32* %5, align 4
  %66 = load i32, i32* %3, align 4
  %67 = sub nsw i32 %66, 1
  %68 = icmp slt i32 %65, %67
  br i1 %68, label %69, label %78

69:                                               ; preds = %64
  %70 = load i32, i32* %5, align 4
  %71 = sext i32 %70 to i64
  %72 = getelementptr inbounds [100 x i32], [100 x i32]* %2, i64 0, i64 %71
  %73 = load i32, i32* %72, align 4
  %74 = call i32 (i8*, ...) @printf(i8* getelementptr inbounds ([4 x i8], [4 x i8]* @.str.2, i64 0, i64 0), i32 %73)
  br label %75

75:                                               ; preds = %69
  %76 = load i32, i32* %5, align 4
  %77 = add nsw i32 %76, 1
  store i32 %77, i32* %5, align 4
  br label %64

78:                                               ; preds = %64
  %79 = load i32, i32* %5, align 4
  %80 = sext i32 %79 to i64
  %81 = getelementptr inbounds [100 x i32], [100 x i32]* %2, i64 0, i64 %80
  %82 = load i32, i32* %81, align 4
  %83 = call i32 (i8*, ...) @printf(i8* getelementptr inbounds ([3 x i8], [3 x i8]* @.str.1, i64 0, i64 0), i32 %82)
  ret i32 0
}

declare dso_local i32 @__isoc99_scanf(i8*, ...) #1

declare dso_local i32 @printf(i8*, ...) #1


!llvm.module.flags = !{!0}
!llvm.ident = !{!1}

!0 = !{i32 1, !"wchar_size", i32 4}
!1 = !{!"clang version 10.0.0-4ubuntu1 "}
